	.file	"hw7.cc"
	.text
.Ltext0:
	.p2align 4
	.globl	_Z5printPj
	.type	_Z5printPj, @function
_Z5printPj:
.LVL0:
.LFB1532:
	.file 1 "hw7.cc"
	.loc 1 7 27 view -0
	.cfi_startproc
	.loc 1 7 27 is_stmt 0 view .LVU1
	endbr64
	pushq	%rbp
	.cfi_def_cfa_offset 16
	.cfi_offset 6, -16
	pushq	%rbx
	.cfi_def_cfa_offset 24
	.cfi_offset 3, -24
	movq	%rdi, %rbx
	subq	$24, %rsp
	.cfi_def_cfa_offset 48
.LBB20:
.LBB21:
	.file 2 "/usr/include/c++/9/ostream"
	.loc 2 196 50 view .LVU2
	movl	(%rdi), %esi
	leaq	_ZSt4cout(%rip), %rdi
.LVL1:
	.loc 2 196 50 view .LVU3
.LBE21:
.LBE20:
	.loc 1 7 27 view .LVU4
	movq	%fs:40, %rax
	movq	%rax, 8(%rsp)
	xorl	%eax, %eax
	.loc 1 8 3 is_stmt 1 view .LVU5
.LVL2:
.LBB24:
.LBI20:
	.loc 2 192 7 view .LVU6
.LBE24:
.LBB25:
.LBB26:
	.loc 2 518 30 is_stmt 0 view .LVU7
	leaq	7(%rsp), %rbp
.LBE26:
.LBE25:
.LBB30:
.LBB22:
	.loc 2 196 50 view .LVU8
	call	_ZNSo9_M_insertImEERSoT_@PLT
.LVL3:
.LBE22:
.LBE30:
.LBB31:
.LBB27:
	.loc 2 518 30 view .LVU9
	movl	$1, %edx
	movq	%rbp, %rsi
	movb	$32, 7(%rsp)
.LBE27:
.LBE31:
.LBB32:
.LBB23:
	.loc 2 196 50 view .LVU10
	movq	%rax, %rdi
.LVL4:
	.loc 2 196 50 view .LVU11
.LBE23:
.LBE32:
.LBB33:
.LBI25:
	.loc 2 517 5 is_stmt 1 view .LVU12
.LBB28:
	.loc 2 518 30 is_stmt 0 view .LVU13
	call	_ZSt16__ostream_insertIcSt11char_traitsIcEERSt13basic_ostreamIT_T0_ES6_PKS3_l@PLT
.LVL5:
	.loc 2 518 30 view .LVU14
.LBE28:
.LBE33:
.LBB34:
.LBB35:
	.loc 2 196 50 view .LVU15
	movl	4(%rbx), %esi
.LBE35:
.LBE34:
.LBB38:
.LBB29:
	.loc 2 518 30 view .LVU16
	movq	%rax, %rdi
.LVL6:
	.loc 2 518 30 view .LVU17
.LBE29:
.LBE38:
.LBB39:
.LBI34:
	.loc 2 192 7 is_stmt 1 view .LVU18
.LBB36:
	.loc 2 196 50 is_stmt 0 view .LVU19
	call	_ZNSo9_M_insertImEERSoT_@PLT
.LVL7:
	.loc 2 196 50 view .LVU20
.LBE36:
.LBE39:
.LBB40:
.LBB41:
	.loc 2 518 30 view .LVU21
	movl	$1, %edx
	movq	%rbp, %rsi
	movb	$32, 7(%rsp)
.LBE41:
.LBE40:
.LBB44:
.LBB37:
	.loc 2 196 50 view .LVU22
	movq	%rax, %rdi
.LVL8:
	.loc 2 196 50 view .LVU23
.LBE37:
.LBE44:
.LBB45:
.LBI40:
	.loc 2 517 5 is_stmt 1 view .LVU24
.LBB42:
	.loc 2 518 30 is_stmt 0 view .LVU25
	call	_ZSt16__ostream_insertIcSt11char_traitsIcEERSt13basic_ostreamIT_T0_ES6_PKS3_l@PLT
.LVL9:
	.loc 2 518 30 view .LVU26
.LBE42:
.LBE45:
.LBB46:
.LBB47:
	.loc 2 196 50 view .LVU27
	movl	8(%rbx), %esi
.LBE47:
.LBE46:
.LBB50:
.LBB43:
	.loc 2 518 30 view .LVU28
	movq	%rax, %rdi
.LVL10:
	.loc 2 518 30 view .LVU29
.LBE43:
.LBE50:
.LBB51:
.LBI46:
	.loc 2 192 7 is_stmt 1 view .LVU30
.LBB48:
	.loc 2 196 50 is_stmt 0 view .LVU31
	call	_ZNSo9_M_insertImEERSoT_@PLT
.LVL11:
	.loc 2 196 50 view .LVU32
.LBE48:
.LBE51:
.LBB52:
.LBB53:
	.loc 2 518 30 view .LVU33
	movl	$1, %edx
	movq	%rbp, %rsi
	movb	$32, 7(%rsp)
.LBE53:
.LBE52:
.LBB56:
.LBB49:
	.loc 2 196 50 view .LVU34
	movq	%rax, %rdi
.LVL12:
	.loc 2 196 50 view .LVU35
.LBE49:
.LBE56:
.LBB57:
.LBI52:
	.loc 2 517 5 is_stmt 1 view .LVU36
.LBB54:
	.loc 2 518 30 is_stmt 0 view .LVU37
	call	_ZSt16__ostream_insertIcSt11char_traitsIcEERSt13basic_ostreamIT_T0_ES6_PKS3_l@PLT
.LVL13:
	.loc 2 518 30 view .LVU38
.LBE54:
.LBE57:
.LBB58:
.LBB59:
	.loc 2 196 50 view .LVU39
	movl	12(%rbx), %esi
.LBE59:
.LBE58:
.LBB62:
.LBB55:
	.loc 2 518 30 view .LVU40
	movq	%rax, %rdi
.LVL14:
	.loc 2 518 30 view .LVU41
.LBE55:
.LBE62:
.LBB63:
.LBI58:
	.loc 2 192 7 is_stmt 1 view .LVU42
.LBB60:
	.loc 2 196 50 is_stmt 0 view .LVU43
	call	_ZNSo9_M_insertImEERSoT_@PLT
.LVL15:
	.loc 2 196 50 view .LVU44
.LBE60:
.LBE63:
.LBB64:
.LBB65:
	.loc 2 518 30 view .LVU45
	movl	$1, %edx
	movq	%rbp, %rsi
	movb	$10, 7(%rsp)
.LBE65:
.LBE64:
.LBB67:
.LBB61:
	.loc 2 196 50 view .LVU46
	movq	%rax, %rdi
.LVL16:
	.loc 2 196 50 view .LVU47
.LBE61:
.LBE67:
.LBB68:
.LBI64:
	.loc 2 517 5 is_stmt 1 view .LVU48
.LBB66:
	.loc 2 518 30 is_stmt 0 view .LVU49
	call	_ZSt16__ostream_insertIcSt11char_traitsIcEERSt13basic_ostreamIT_T0_ES6_PKS3_l@PLT
.LVL17:
	.loc 2 518 30 view .LVU50
.LBE66:
.LBE68:
	.loc 1 9 1 view .LVU51
	movq	8(%rsp), %rax
	xorq	%fs:40, %rax
	jne	.L5
	addq	$24, %rsp
	.cfi_remember_state
	.cfi_def_cfa_offset 24
	popq	%rbx
	.cfi_def_cfa_offset 16
.LVL18:
	.loc 1 9 1 view .LVU52
	popq	%rbp
	.cfi_def_cfa_offset 8
	ret
.LVL19:
.L5:
	.cfi_restore_state
	.loc 1 9 1 view .LVU53
	call	__stack_chk_fail@PLT
.LVL20:
	.cfi_endproc
.LFE1532:
	.size	_Z5printPj, .-_Z5printPj
	.section	.text.startup,"ax",@progbits
	.p2align 4
	.globl	main
	.type	main, @function
main:
.LFB1533:
	.loc 1 10 12 is_stmt 1 view -0
	.cfi_startproc
	endbr64
	pushq	%rbp
	.cfi_def_cfa_offset 16
	.cfi_offset 6, -16
	subq	$160, %rsp
	.cfi_def_cfa_offset 176
	.loc 1 10 12 is_stmt 0 view .LVU55
	movq	%fs:40, %rax
	movq	%rax, 152(%rsp)
	xorl	%eax, %eax
	.loc 1 11 2 is_stmt 1 view .LVU56
	.loc 1 14 8 is_stmt 0 view .LVU57
	leaq	32(%rsp), %rbp
	leaq	16(%rsp), %rdx
	movq	%rsp, %rsi
	.loc 1 11 11 view .LVU58
	movabsq	$12884901888, %rax
	.loc 1 14 8 view .LVU59
	movq	%rbp, %rdi
	.loc 1 11 11 view .LVU60
	movq	$0, (%rsp)
	movq	%rax, 8(%rsp)
	.loc 1 12 2 is_stmt 1 view .LVU61
	.loc 1 12 11 is_stmt 0 view .LVU62
	movabsq	$21474836480, %rax
	movq	%rax, 24(%rsp)
	.loc 1 13 2 is_stmt 1 view .LVU63
	.loc 1 14 2 view .LVU64
	.loc 1 12 11 is_stmt 0 view .LVU65
	movq	$0, 16(%rsp)
	.loc 1 14 8 view .LVU66
	call	_Z6add128PjPKjS1_@PLT
.LVL21:
	.loc 1 26 2 is_stmt 1 view .LVU67
	.loc 1 26 7 is_stmt 0 view .LVU68
	movq	%rbp, %rdi
	.loc 1 31 8 view .LVU69
	leaq	80(%rsp), %rbp
	.loc 1 26 7 view .LVU70
	call	_Z5printPj
.LVL22:
	.loc 1 28 2 is_stmt 1 view .LVU71
	.loc 1 31 8 is_stmt 0 view .LVU72
	leaq	64(%rsp), %rdx
	leaq	48(%rsp), %rsi
	movq	%rbp, %rdi
	.loc 1 28 11 view .LVU73
	movabsq	$-4294967296, %rax
	movq	$0, 48(%rsp)
	movq	%rax, 56(%rsp)
	.loc 1 29 2 is_stmt 1 view .LVU74
	.loc 1 29 11 is_stmt 0 view .LVU75
	movabsq	$4294967296, %rax
	movq	%rax, 72(%rsp)
	.loc 1 30 2 is_stmt 1 view .LVU76
	.loc 1 31 2 view .LVU77
	.loc 1 29 11 is_stmt 0 view .LVU78
	movq	$0, 64(%rsp)
	.loc 1 31 8 view .LVU79
	call	_Z6add128PjPKjS1_@PLT
.LVL23:
	.loc 1 32 2 is_stmt 1 view .LVU80
	.loc 1 32 7 is_stmt 0 view .LVU81
	movq	%rbp, %rdi
	.loc 1 37 8 view .LVU82
	leaq	128(%rsp), %rbp
	.loc 1 32 7 view .LVU83
	call	_Z5printPj
.LVL24:
	.loc 1 34 2 is_stmt 1 view .LVU84
	.loc 1 37 8 is_stmt 0 view .LVU85
	leaq	112(%rsp), %rdx
	leaq	96(%rsp), %rsi
	movq	%rbp, %rdi
	.loc 1 34 11 view .LVU86
	movabsq	$-5561842182709551616, %rax
	movq	$0, 96(%rsp)
	movq	%rax, 104(%rsp)
	.loc 1 35 2 is_stmt 1 view .LVU87
	.loc 1 35 11 is_stmt 0 view .LVU88
	movq	%rax, 120(%rsp)
	.loc 1 36 2 is_stmt 1 view .LVU89
	.loc 1 37 2 view .LVU90
	.loc 1 35 11 is_stmt 0 view .LVU91
	movq	$0, 112(%rsp)
	.loc 1 37 8 view .LVU92
	call	_Z6add128PjPKjS1_@PLT
.LVL25:
	.loc 1 38 2 is_stmt 1 view .LVU93
	.loc 1 38 7 is_stmt 0 view .LVU94
	movq	%rbp, %rdi
	call	_Z5printPj
.LVL26:
	.loc 1 54 1 view .LVU95
	movq	152(%rsp), %rax
	xorq	%fs:40, %rax
	jne	.L9
	addq	$160, %rsp
	.cfi_remember_state
	.cfi_def_cfa_offset 16
	xorl	%eax, %eax
	popq	%rbp
	.cfi_def_cfa_offset 8
	ret
.L9:
	.cfi_restore_state
	call	__stack_chk_fail@PLT
.LVL27:
	.cfi_endproc
.LFE1533:
	.size	main, .-main
	.p2align 4
	.type	_GLOBAL__sub_I__Z5printPj, @function
_GLOBAL__sub_I__Z5printPj:
.LFB1853:
	.loc 1 54 1 is_stmt 1 view -0
	.cfi_startproc
	endbr64
.LVL28:
.LBB69:
.LBI69:
	.loc 1 54 1 view .LVU97
.LBE69:
	subq	$8, %rsp
	.cfi_def_cfa_offset 16
.LBB72:
.LBB70:
	.file 3 "/usr/include/c++/9/iostream"
	.loc 3 74 25 is_stmt 0 view .LVU98
	leaq	_ZStL8__ioinit(%rip), %rdi
	call	_ZNSt8ios_base4InitC1Ev@PLT
.LVL29:
	movq	_ZNSt8ios_base4InitD1Ev@GOTPCREL(%rip), %rdi
.LBE70:
.LBE72:
	.loc 1 54 1 view .LVU99
	addq	$8, %rsp
	.cfi_def_cfa_offset 8
.LBB73:
.LBB71:
	.loc 3 74 25 view .LVU100
	leaq	__dso_handle(%rip), %rdx
	leaq	_ZStL8__ioinit(%rip), %rsi
	jmp	__cxa_atexit@PLT
.LVL30:
.LBE71:
.LBE73:
	.cfi_endproc
.LFE1853:
	.size	_GLOBAL__sub_I__Z5printPj, .-_GLOBAL__sub_I__Z5printPj
	.section	.init_array,"aw"
	.align 8
	.quad	_GLOBAL__sub_I__Z5printPj
	.local	_ZStL8__ioinit
	.comm	_ZStL8__ioinit,1,1
	.text
.Letext0:
	.file 4 "/usr/include/c++/9/cwchar"
	.file 5 "/usr/include/c++/9/new"
	.file 6 "/usr/include/c++/9/bits/exception_ptr.h"
	.file 7 "/usr/include/c++/9/type_traits"
	.file 8 "/usr/include/x86_64-linux-gnu/c++/9/bits/c++config.h"
	.file 9 "/usr/include/c++/9/bits/stl_pair.h"
	.file 10 "/usr/include/c++/9/debug/debug.h"
	.file 11 "/usr/include/c++/9/bits/char_traits.h"
	.file 12 "/usr/include/c++/9/cstdint"
	.file 13 "/usr/include/c++/9/clocale"
	.file 14 "/usr/include/c++/9/cstdlib"
	.file 15 "/usr/include/c++/9/cstdio"
	.file 16 "/usr/include/c++/9/system_error"
	.file 17 "/usr/include/c++/9/bits/ios_base.h"
	.file 18 "/usr/include/c++/9/cwctype"
	.file 19 "/usr/include/c++/9/iosfwd"
	.file 20 "/usr/include/c++/9/bits/ostream.tcc"
	.file 21 "/usr/include/c++/9/bits/ostream_insert.h"
	.file 22 "/usr/include/c++/9/bits/predefined_ops.h"
	.file 23 "/usr/include/c++/9/ext/new_allocator.h"
	.file 24 "/usr/include/c++/9/ext/numeric_traits.h"
	.file 25 "/usr/lib/gcc/x86_64-linux-gnu/9/include/stddef.h"
	.file 26 "<built-in>"
	.file 27 "/usr/include/x86_64-linux-gnu/bits/types/wint_t.h"
	.file 28 "/usr/include/x86_64-linux-gnu/bits/types/__mbstate_t.h"
	.file 29 "/usr/include/x86_64-linux-gnu/bits/types/mbstate_t.h"
	.file 30 "/usr/include/x86_64-linux-gnu/bits/types/__FILE.h"
	.file 31 "/usr/include/x86_64-linux-gnu/bits/types/struct_FILE.h"
	.file 32 "/usr/include/x86_64-linux-gnu/bits/types/FILE.h"
	.file 33 "/usr/include/wchar.h"
	.file 34 "/usr/include/x86_64-linux-gnu/bits/wchar2.h"
	.file 35 "/usr/include/x86_64-linux-gnu/bits/types/struct_tm.h"
	.file 36 "/usr/include/x86_64-linux-gnu/bits/types.h"
	.file 37 "/usr/include/x86_64-linux-gnu/bits/stdint-intn.h"
	.file 38 "/usr/include/x86_64-linux-gnu/bits/stdint-uintn.h"
	.file 39 "/usr/include/stdint.h"
	.file 40 "/usr/include/locale.h"
	.file 41 "/usr/include/time.h"
	.file 42 "/usr/include/x86_64-linux-gnu/c++/9/bits/atomic_word.h"
	.file 43 "/usr/include/stdlib.h"
	.file 44 "/usr/include/x86_64-linux-gnu/bits/stdlib-float.h"
	.file 45 "/usr/include/x86_64-linux-gnu/bits/stdlib-bsearch.h"
	.file 46 "/usr/include/x86_64-linux-gnu/bits/stdlib.h"
	.file 47 "/usr/include/x86_64-linux-gnu/bits/types/__fpos_t.h"
	.file 48 "/usr/include/stdio.h"
	.file 49 "/usr/include/x86_64-linux-gnu/bits/sys_errlist.h"
	.file 50 "/usr/include/x86_64-linux-gnu/bits/stdio2.h"
	.file 51 "/usr/include/x86_64-linux-gnu/bits/stdio.h"
	.file 52 "/usr/include/errno.h"
	.file 53 "/usr/include/x86_64-linux-gnu/bits/wctype-wchar.h"
	.file 54 "/usr/include/wctype.h"
	.section	.note.GNU-stack,"",@progbits
	.section	.note.gnu.property,"a"
	.align 8
	.long	 1f - 0f
	.long	 4f - 1f
	.long	 5
0:
	.string	 "GNU"
1:
	.align 8
	.long	 0xc0000002
	.long	 3f - 2f
2:
	.long	 0x3
3:
	.align 8
4:
